

Microchip Technology PIC LITE Macro Assembler V1.31 build 56723 
                                                                                               Tue Jun 10 22:12:17 2014

Microchip Technology Omniscient Code Generator (Lite mode) build 56723
     1                           	processor	16F690
     2                           	opt	pw 120
     3                           	opt	lm
     4                           	psect	text0,local,class=CODE,merge=1,delta=2
     5                           	psect	cinit,global,class=CODE,merge=1,delta=2
     6                           	psect	cstackCOMMON,global,class=COMMON,space=1,delta=1
     7                           	psect	cstackBANK0,global,class=BANK0,space=1,delta=1
     8                           	psect	maintext,global,class=CODE,split=1,delta=2
     9                           	psect	text1,local,class=CODE,merge=1,delta=2
    10                           	psect	text2,local,class=CODE,merge=1,delta=2
    11                           	psect	text3,local,class=CODE,merge=1,delta=2
    12                           	psect	text4,local,class=CODE,merge=1,delta=2
    13                           	psect	text5,local,class=CODE,merge=1,delta=2
    14                           	psect	intentry,global,class=CODE,delta=2
    15                           	dabs	1,0x7E,2
    16  0000                     	;# 
    17  0001                     	;# 
    18  0002                     	;# 
    19  0003                     	;# 
    20  0004                     	;# 
    21  0005                     	;# 
    22  0006                     	;# 
    23  0007                     	;# 
    24  000A                     	;# 
    25  000B                     	;# 
    26  000C                     	;# 
    27  000D                     	;# 
    28  000E                     	;# 
    29  000E                     	;# 
    30  000F                     	;# 
    31  0010                     	;# 
    32  0011                     	;# 
    33  0012                     	;# 
    34  0013                     	;# 
    35  0014                     	;# 
    36  0015                     	;# 
    37  0015                     	;# 
    38  0016                     	;# 
    39  0017                     	;# 
    40  0018                     	;# 
    41  0019                     	;# 
    42  001A                     	;# 
    43  001C                     	;# 
    44  001D                     	;# 
    45  001E                     	;# 
    46  001F                     	;# 
    47  0081                     	;# 
    48  0085                     	;# 
    49  0086                     	;# 
    50  0087                     	;# 
    51  008C                     	;# 
    52  008D                     	;# 
    53  008E                     	;# 
    54  008F                     	;# 
    55  0090                     	;# 
    56  0092                     	;# 
    57  0093                     	;# 
    58  0093                     	;# 
    59  0093                     	;# 
    60  0094                     	;# 
    61  0095                     	;# 
    62  0095                     	;# 
    63  0096                     	;# 
    64  0096                     	;# 
    65  0097                     	;# 
    66  0098                     	;# 
    67  0099                     	;# 
    68  009A                     	;# 
    69  009B                     	;# 
    70  009E                     	;# 
    71  009F                     	;# 
    72  010C                     	;# 
    73  010C                     	;# 
    74  010D                     	;# 
    75  010E                     	;# 
    76  010F                     	;# 
    77  0115                     	;# 
    78  0116                     	;# 
    79  0118                     	;# 
    80  0119                     	;# 
    81  011A                     	;# 
    82  011B                     	;# 
    83  011E                     	;# 
    84  011F                     	;# 
    85  018C                     	;# 
    86  018D                     	;# 
    87  019D                     	;# 
    88  019E                     	;# 
    89  0000                     	;# 
    90  0001                     	;# 
    91  0002                     	;# 
    92  0003                     	;# 
    93  0004                     	;# 
    94  0005                     	;# 
    95  0006                     	;# 
    96  0007                     	;# 
    97  000A                     	;# 
    98  000B                     	;# 
    99  000C                     	;# 
   100  000D                     	;# 
   101  000E                     	;# 
   102  000E                     	;# 
   103  000F                     	;# 
   104  0010                     	;# 
   105  0011                     	;# 
   106  0012                     	;# 
   107  0013                     	;# 
   108  0014                     	;# 
   109  0015                     	;# 
   110  0015                     	;# 
   111  0016                     	;# 
   112  0017                     	;# 
   113  0018                     	;# 
   114  0019                     	;# 
   115  001A                     	;# 
   116  001C                     	;# 
   117  001D                     	;# 
   118  001E                     	;# 
   119  001F                     	;# 
   120  0081                     	;# 
   121  0085                     	;# 
   122  0086                     	;# 
   123  0087                     	;# 
   124  008C                     	;# 
   125  008D                     	;# 
   126  008E                     	;# 
   127  008F                     	;# 
   128  0090                     	;# 
   129  0092                     	;# 
   130  0093                     	;# 
   131  0093                     	;# 
   132  0093                     	;# 
   133  0094                     	;# 
   134  0095                     	;# 
   135  0095                     	;# 
   136  0096                     	;# 
   137  0096                     	;# 
   138  0097                     	;# 
   139  0098                     	;# 
   140  0099                     	;# 
   141  009A                     	;# 
   142  009B                     	;# 
   143  009E                     	;# 
   144  009F                     	;# 
   145  010C                     	;# 
   146  010C                     	;# 
   147  010D                     	;# 
   148  010E                     	;# 
   149  010F                     	;# 
   150  0115                     	;# 
   151  0116                     	;# 
   152  0118                     	;# 
   153  0119                     	;# 
   154  011A                     	;# 
   155  011B                     	;# 
   156  011E                     	;# 
   157  011F                     	;# 
   158  018C                     	;# 
   159  018D                     	;# 
   160  019D                     	;# 
   161  019E                     	;# 
   162  0000                     	;# 
   163  0001                     	;# 
   164  0002                     	;# 
   165  0003                     	;# 
   166  0004                     	;# 
   167  0005                     	;# 
   168  0006                     	;# 
   169  0007                     	;# 
   170  000A                     	;# 
   171  000B                     	;# 
   172  000C                     	;# 
   173  000D                     	;# 
   174  000E                     	;# 
   175  000E                     	;# 
   176  000F                     	;# 
   177  0010                     	;# 
   178  0011                     	;# 
   179  0012                     	;# 
   180  0013                     	;# 
   181  0014                     	;# 
   182  0015                     	;# 
   183  0015                     	;# 
   184  0016                     	;# 
   185  0017                     	;# 
   186  0018                     	;# 
   187  0019                     	;# 
   188  001A                     	;# 
   189  001C                     	;# 
   190  001D                     	;# 
   191  001E                     	;# 
   192  001F                     	;# 
   193  0081                     	;# 
   194  0085                     	;# 
   195  0086                     	;# 
   196  0087                     	;# 
   197  008C                     	;# 
   198  008D                     	;# 
   199  008E                     	;# 
   200  008F                     	;# 
   201  0090                     	;# 
   202  0092                     	;# 
   203  0093                     	;# 
   204  0093                     	;# 
   205  0093                     	;# 
   206  0094                     	;# 
   207  0095                     	;# 
   208  0095                     	;# 
   209  0096                     	;# 
   210  0096                     	;# 
   211  0097                     	;# 
   212  0098                     	;# 
   213  0099                     	;# 
   214  009A                     	;# 
   215  009B                     	;# 
   216  009E                     	;# 
   217  009F                     	;# 
   218  010C                     	;# 
   219  010C                     	;# 
   220  010D                     	;# 
   221  010E                     	;# 
   222  010F                     	;# 
   223  0115                     	;# 
   224  0116                     	;# 
   225  0118                     	;# 
   226  0119                     	;# 
   227  011A                     	;# 
   228  011B                     	;# 
   229  011E                     	;# 
   230  011F                     	;# 
   231  018C                     	;# 
   232  018D                     	;# 
   233  019D                     	;# 
   234  019E                     	;# 
   235  0000                     	;# 
   236  0001                     	;# 
   237  0002                     	;# 
   238  0003                     	;# 
   239  0004                     	;# 
   240  0005                     	;# 
   241  0006                     	;# 
   242  0007                     	;# 
   243  000A                     	;# 
   244  000B                     	;# 
   245  000C                     	;# 
   246  000D                     	;# 
   247  000E                     	;# 
   248  000E                     	;# 
   249  000F                     	;# 
   250  0010                     	;# 
   251  0011                     	;# 
   252  0012                     	;# 
   253  0013                     	;# 
   254  0014                     	;# 
   255  0015                     	;# 
   256  0015                     	;# 
   257  0016                     	;# 
   258  0017                     	;# 
   259  0018                     	;# 
   260  0019                     	;# 
   261  001A                     	;# 
   262  001C                     	;# 
   263  001D                     	;# 
   264  001E                     	;# 
   265  001F                     	;# 
   266  0081                     	;# 
   267  0085                     	;# 
   268  0086                     	;# 
   269  0087                     	;# 
   270  008C                     	;# 
   271  008D                     	;# 
   272  008E                     	;# 
   273  008F                     	;# 
   274  0090                     	;# 
   275  0092                     	;# 
   276  0093                     	;# 
   277  0093                     	;# 
   278  0093                     	;# 
   279  0094                     	;# 
   280  0095                     	;# 
   281  0095                     	;# 
   282  0096                     	;# 
   283  0096                     	;# 
   284  0097                     	;# 
   285  0098                     	;# 
   286  0099                     	;# 
   287  009A                     	;# 
   288  009B                     	;# 
   289  009E                     	;# 
   290  009F                     	;# 
   291  010C                     	;# 
   292  010C                     	;# 
   293  010D                     	;# 
   294  010E                     	;# 
   295  010F                     	;# 
   296  0115                     	;# 
   297  0116                     	;# 
   298  0118                     	;# 
   299  0119                     	;# 
   300  011A                     	;# 
   301  011B                     	;# 
   302  011E                     	;# 
   303  011F                     	;# 
   304  018C                     	;# 
   305  018D                     	;# 
   306  019D                     	;# 
   307  019E                     	;# 
   308  0000                     	;# 
   309  0001                     	;# 
   310  0002                     	;# 
   311  0003                     	;# 
   312  0004                     	;# 
   313  0005                     	;# 
   314  0006                     	;# 
   315  0007                     	;# 
   316  000A                     	;# 
   317  000B                     	;# 
   318  000C                     	;# 
   319  000D                     	;# 
   320  000E                     	;# 
   321  000E                     	;# 
   322  000F                     	;# 
   323  0010                     	;# 
   324  0011                     	;# 
   325  0012                     	;# 
   326  0013                     	;# 
   327  0014                     	;# 
   328  0015                     	;# 
   329  0015                     	;# 
   330  0016                     	;# 
   331  0017                     	;# 
   332  0018                     	;# 
   333  0019                     	;# 
   334  001A                     	;# 
   335  001C                     	;# 
   336  001D                     	;# 
   337  001E                     	;# 
   338  001F                     	;# 
   339  0081                     	;# 
   340  0085                     	;# 
   341  0086                     	;# 
   342  0087                     	;# 
   343  008C                     	;# 
   344  008D                     	;# 
   345  008E                     	;# 
   346  008F                     	;# 
   347  0090                     	;# 
   348  0092                     	;# 
   349  0093                     	;# 
   350  0093                     	;# 
   351  0093                     	;# 
   352  0094                     	;# 
   353  0095                     	;# 
   354  0095                     	;# 
   355  0096                     	;# 
   356  0096                     	;# 
   357  0097                     	;# 
   358  0098                     	;# 
   359  0099                     	;# 
   360  009A                     	;# 
   361  009B                     	;# 
   362  009E                     	;# 
   363  009F                     	;# 
   364  010C                     	;# 
   365  010C                     	;# 
   366  010D                     	;# 
   367  010E                     	;# 
   368  010F                     	;# 
   369  0115                     	;# 
   370  0116                     	;# 
   371  0118                     	;# 
   372  0119                     	;# 
   373  011A                     	;# 
   374  011B                     	;# 
   375  011E                     	;# 
   376  011F                     	;# 
   377  018C                     	;# 
   378  018D                     	;# 
   379  019D                     	;# 
   380  019E                     	;# 
   381  0007                     _PORTC	set	7
   382  0018                     _RCSTAbits	set	24
   383  0001                     _TMR0	set	1
   384  0019                     _TXREG	set	25
   385  0064                     _TXIF	set	100
   386  009B                     _BAUDCTLbits	set	155
   387  0081                     _OPTION_REGbits	set	129
   388  008F                     _OSCCONbits	set	143
   389  0099                     _SPBRG	set	153
   390  0086                     _TRISBbits	set	134
   391  0087                     _TRISC	set	135
   392  0098                     _TXSTAbits	set	152
   393  011E                     _ANSEL	set	286
   394  011F                     _ANSELH	set	287
   395                           
   396                           	psect	text0
   397  0000                     __ptext0:	
   398                           ; #config settings
   399                           
   400                           
   401                           ;psect for function _isr
   402  0000                     
   403                           	psect	cinit
   404  0013                     start_initialization:	
   405  0013                     __initialization:	
   406  0013                     end_of_initialization:	
   407                           ;End of C runtime variable initialization code
   408                           
   409  0013                     __end_of__initialization:	
   410  0013  0183               	clrf	3
   411  0014  118A  2865         	ljmp	_main	;jump to C main() function
   412                           
   413                           	psect	cstackCOMMON
   414  0070                     __pcstackCOMMON:	
   415  0070                     ?_ConfigureOscillator:	
   416  0070                     ?_initUart:	
   417                           ; 0 bytes @ 0x0
   418                           
   419  0070                     ?_putch_JEC:	
   420                           ; 0 bytes @ 0x0
   421                           
   422  0070                     ?_isr:	
   423                           ; 0 bytes @ 0x0
   424                           
   425  0070                     ??_isr:	
   426                           ; 0 bytes @ 0x0
   427                           
   428  0070                     ?_main:	
   429                           ; 0 bytes @ 0x0
   430                           
   431                           
   432                           ; 0 bytes @ 0x0
   433  0070                     	ds	4
   434  0074                     ??_ConfigureOscillator:	
   435  0074                     ??_initUart:	
   436                           ; 0 bytes @ 0x4
   437                           
   438  0074                     ??_putch_JEC:	
   439                           ; 0 bytes @ 0x4
   440                           
   441  0074                     ?___awmod:	
   442                           ; 0 bytes @ 0x4
   443                           
   444  0074                     putch_JEC@data:	
   445                           ; 2 bytes @ 0x4
   446                           
   447  0074                     ___awmod@divisor:	
   448                           ; 1 bytes @ 0x4
   449                           
   450                           
   451                           ; 2 bytes @ 0x4
   452  0074                     	ds	2
   453  0076                     ___awmod@dividend:	
   454                           
   455                           ; 2 bytes @ 0x6
   456  0076                     	ds	2
   457  0078                     ??___awmod:	
   458                           
   459                           ; 0 bytes @ 0x8
   460  0078                     	ds	1
   461                           
   462                           	psect	cstackBANK0
   463  0020                     __pcstackBANK0:	
   464  0020                     ___awmod@counter:	
   465                           
   466                           ; 1 bytes @ 0x0
   467  0020                     	ds	1
   468  0021                     ___awmod@sign:	
   469                           
   470                           ; 1 bytes @ 0x1
   471  0021                     	ds	1
   472  0022                     ??_main:	
   473                           
   474                           ; 0 bytes @ 0x2
   475  0022                     	ds	3
   476  0025                     main@sender:	
   477                           
   478                           ; 1 bytes @ 0x5
   479  0025                     	ds	1
   480  0026                     main@j:	
   481                           
   482                           ; 2 bytes @ 0x6
   483  0026                     	ds	2
   484                           
   485                           	psect	maintext
   486  0065                     __pmaintext:	
   487 ;;
   488 ;;Main: autosize = 0, tempsize = 3, incstack = 0, save=0
   489 ;;
   490 ;; *************** function _main *****************
   491 ;; Defined at:
   492 ;;		line 31 in file "main.c"
   493 ;; Parameters:    Size  Location     Type
   494 ;;		None
   495 ;; Auto vars:     Size  Location     Type
   496 ;;  j               2    6[BANK0 ] int 
   497 ;;  sender          1    5[BANK0 ] unsigned char 
   498 ;; Return value:  Size  Location     Type
   499 ;;		None               void
   500 ;; Registers used:
   501 ;;		wreg, status,2, status,0, pclath, cstack
   502 ;; Tracked objects:
   503 ;;		On entry : 17F/0
   504 ;;		On exit  : 0/0
   505 ;;		Unchanged: 0/0
   506 ;; Data sizes:     COMMON   BANK0   BANK1   BANK2
   507 ;;      Params:         0       0       0       0
   508 ;;      Locals:         0       3       0       0
   509 ;;      Temps:          0       3       0       0
   510 ;;      Totals:         0       6       0       0
   511 ;;Total ram usage:        6 bytes
   512 ;; Hardware stack levels required when called:    2
   513 ;; This function calls:
   514 ;;		_ConfigureOscillator
   515 ;;		___awmod
   516 ;;		_initUart
   517 ;;		_putch_JEC
   518 ;; This function is called by:
   519 ;;		Startup code after reset
   520 ;; This function uses a non-reentrant model
   521 ;;
   522                           
   523                           
   524                           ;psect for function _main
   525  0065                     _main:	
   526                           
   527                           ;main.c: 37: ConfigureOscillator();
   528                           
   529                           ;incstack = 0
   530                           ; Regs used in _main: [wreg+status,2+status,0+pclath+cstack]
   531  0065  118A  20C2  118A   	fcall	_ConfigureOscillator
   532                           
   533                           ;main.c: 39: initUart();
   534  0068  118A  20A5  118A   	fcall	_initUart
   535                           
   536                           ;main.c: 44: TRISC = 0x0;
   537  006B  1683               	bsf	3,5	;RP0=1, select bank1
   538  006C  1303               	bcf	3,6	;RP1=0, select bank1
   539  006D  0187               	clrf	7	;volatile
   540                           
   541                           ;main.c: 45: PORTC = 0x0;
   542  006E  1283               	bcf	3,5	;RP0=0, select bank0
   543  006F  1303               	bcf	3,6	;RP1=0, select bank0
   544  0070  0187               	clrf	7	;volatile
   545                           
   546                           ;main.c: 47: unsigned char sender=0x41;
   547  0071  3041               	movlw	65
   548  0072  00A2               	movwf	??_main
   549  0073  0822               	movf	??_main,w
   550  0074  00A5               	movwf	main@sender
   551                           
   552                           ;main.c: 48: int j=1;
   553  0075  3001               	movlw	1
   554  0076  00A6               	movwf	main@j
   555  0077  3000               	movlw	0
   556  0078  00A7               	movwf	main@j+1
   557  0079                     l777:	
   558                           ;main.c: 50: while(1)
   559                           
   560                           
   561                           ;main.c: 51: {
   562                           ;main.c: 53: _delay((unsigned long)((500)*(4000000/4000.0)));
   563  0079  3003               	movlw	3
   564  007A  1283               	bcf	3,5	;RP0=0, select bank0
   565  007B  1303               	bcf	3,6	;RP1=0, select bank0
   566  007C  00A4               	movwf	??_main+2
   567  007D  308A               	movlw	138
   568  007E  00A3               	movwf	??_main+1
   569  007F  3056               	movlw	86
   570  0080  00A2               	movwf	??_main
   571  0081                     u297:	
   572  0081  0BA2               	decfsz	??_main,f
   573  0082  2881               	goto	u297
   574  0083  0BA3               	decfsz	??_main+1,f
   575  0084  2881               	goto	u297
   576  0085  0BA4               	decfsz	??_main+2,f
   577  0086  2881               	goto	u297
   578  0087  2888               	nop2
   579                           
   580                           ;main.c: 54: PORTC = j;
   581  0088  1283               	bcf	3,5	;RP0=0, select bank0
   582  0089  1303               	bcf	3,6	;RP1=0, select bank0
   583  008A  0826               	movf	main@j,w
   584  008B  0087               	movwf	7	;volatile
   585                           
   586                           ;main.c: 55: j = (j<<1) % 0x0F;
   587  008C  300F               	movlw	15
   588  008D  00F4               	movwf	___awmod@divisor
   589  008E  3000               	movlw	0
   590  008F  00F5               	movwf	___awmod@divisor+1
   591  0090  1003               	clrc
   592  0091  0D26               	rlf	main@j,w
   593  0092  00F6               	movwf	___awmod@dividend
   594  0093  0D27               	rlf	main@j+1,w
   595  0094  00F7               	movwf	___awmod@dividend+1
   596  0095  118A  2016  118A   	fcall	___awmod
   597  0098  0875               	movf	?___awmod+1,w
   598  0099  1283               	bcf	3,5	;RP0=0, select bank0
   599  009A  1303               	bcf	3,6	;RP1=0, select bank0
   600  009B  01A7               	clrf	main@j+1
   601  009C  07A7               	addwf	main@j+1,f
   602  009D  0874               	movf	?___awmod,w
   603  009E  01A6               	clrf	main@j
   604  009F  07A6               	addwf	main@j,f
   605                           
   606                           ;main.c: 58: putch_JEC(sender);
   607  00A0  0825               	movf	main@sender,w
   608  00A1  118A  20DB  118A   	fcall	_putch_JEC
   609  00A4  2879               	goto	l777
   610  00A5                     __end_of_main:	
   611                           
   612                           	psect	text1
   613  00DB                     __ptext1:	
   614 ;; *************** function _putch_JEC *****************
   615 ;; Defined at:
   616 ;;		line 63 in file "user.c"
   617 ;; Parameters:    Size  Location     Type
   618 ;;  data            1    wreg     unsigned char 
   619 ;; Auto vars:     Size  Location     Type
   620 ;;  data            1    4[COMMON] unsigned char 
   621 ;; Return value:  Size  Location     Type
   622 ;;		None               void
   623 ;; Registers used:
   624 ;;		wreg
   625 ;; Tracked objects:
   626 ;;		On entry : 0/0
   627 ;;		On exit  : 0/0
   628 ;;		Unchanged: 0/0
   629 ;; Data sizes:     COMMON   BANK0   BANK1   BANK2
   630 ;;      Params:         0       0       0       0
   631 ;;      Locals:         1       0       0       0
   632 ;;      Temps:          0       0       0       0
   633 ;;      Totals:         1       0       0       0
   634 ;;Total ram usage:        1 bytes
   635 ;; Hardware stack levels used:    1
   636 ;; Hardware stack levels required when called:    1
   637 ;; This function calls:
   638 ;;		Nothing
   639 ;; This function is called by:
   640 ;;		_main
   641 ;; This function uses a non-reentrant model
   642 ;;
   643                           
   644                           
   645                           ;psect for function _putch_JEC
   646  00DB                     _putch_JEC:	
   647                           
   648                           ;incstack = 0
   649                           ; Regs used in _putch_JEC: [wreg]
   650                           ;putch_JEC@data stored from wreg
   651  00DB  00F4               	movwf	putch_JEC@data
   652  00DC                     l87:	
   653                           ;user.c: 65: continue;
   654                           
   655                           ;user.c: 64: while( ! TXIF)
   656                           
   657  00DC  1283               	bcf	3,5	;RP0=0, select bank0
   658  00DD  1303               	bcf	3,6	;RP1=0, select bank0
   659  00DE  1E0C               	btfss	12,4	;volatile
   660  00DF  28DC               	goto	l87
   661                           
   662                           ;user.c: 66: TXREG = data;
   663  00E0  0874               	movf	putch_JEC@data,w
   664  00E1  0099               	movwf	25	;volatile
   665  00E2  0008               	return
   666  00E3                     __end_of_putch_JEC:	
   667                           
   668                           	psect	text2
   669  00A5                     __ptext2:	
   670 ;; *************** function _initUart *****************
   671 ;; Defined at:
   672 ;;		line 43 in file "system.c"
   673 ;; Parameters:    Size  Location     Type
   674 ;;		None
   675 ;; Auto vars:     Size  Location     Type
   676 ;;		None
   677 ;; Return value:  Size  Location     Type
   678 ;;		None               void
   679 ;; Registers used:
   680 ;;		wreg, status,2
   681 ;; Tracked objects:
   682 ;;		On entry : 0/0
   683 ;;		On exit  : 0/0
   684 ;;		Unchanged: 0/0
   685 ;; Data sizes:     COMMON   BANK0   BANK1   BANK2
   686 ;;      Params:         0       0       0       0
   687 ;;      Locals:         0       0       0       0
   688 ;;      Temps:          0       0       0       0
   689 ;;      Totals:         0       0       0       0
   690 ;;Total ram usage:        0 bytes
   691 ;; Hardware stack levels used:    1
   692 ;; Hardware stack levels required when called:    1
   693 ;; This function calls:
   694 ;;		Nothing
   695 ;; This function is called by:
   696 ;;		_main
   697 ;; This function uses a non-reentrant model
   698 ;;
   699                           
   700                           
   701                           ;psect for function _initUart
   702  00A5                     _initUart:	
   703                           
   704                           ;system.c: 45: TXSTAbits.TXEN = 0;
   705                           
   706                           ;incstack = 0
   707                           ; Regs used in _initUart: [wreg+status,2]
   708  00A5  1683               	bsf	3,5	;RP0=1, select bank1
   709  00A6  1303               	bcf	3,6	;RP1=0, select bank1
   710  00A7  1298               	bcf	24,5	;volatile
   711                           
   712                           ;system.c: 48: SPBRG = (4000000/(9600*64))-1;
   713  00A8  30A1               	movlw	161
   714  00A9  0099               	movwf	25	;volatile
   715                           
   716                           ;system.c: 51: ANSEL =0;
   717  00AA  1283               	bcf	3,5	;RP0=0, select bank2
   718  00AB  1703               	bsf	3,6	;RP1=1, select bank2
   719  00AC  019E               	clrf	30	;volatile
   720                           
   721                           ;system.c: 52: ANSELH= 0;
   722  00AD  019F               	clrf	31	;volatile
   723                           
   724                           ;system.c: 55: TRISBbits.TRISB5 = 1;
   725  00AE  1683               	bsf	3,5	;RP0=1, select bank1
   726  00AF  1303               	bcf	3,6	;RP1=0, select bank1
   727  00B0  1686               	bsf	6,5	;volatile
   728                           
   729                           ;system.c: 56: TRISBbits.TRISB7 = 0;
   730  00B1  1386               	bcf	6,7	;volatile
   731                           
   732                           ;system.c: 61: TXSTAbits.TX9 = 0;
   733  00B2  1318               	bcf	24,6	;volatile
   734                           
   735                           ;system.c: 64: TXSTAbits.SYNC = 0;
   736  00B3  1218               	bcf	24,4	;volatile
   737                           
   738                           ;system.c: 65: TXREG = 0;
   739  00B4  1283               	bcf	3,5	;RP0=0, select bank0
   740  00B5  1303               	bcf	3,6	;RP1=0, select bank0
   741  00B6  0199               	clrf	25	;volatile
   742                           
   743                           ;system.c: 68: TXSTAbits.BRGH = 0;
   744  00B7  1683               	bsf	3,5	;RP0=1, select bank1
   745  00B8  1303               	bcf	3,6	;RP1=0, select bank1
   746  00B9  1118               	bcf	24,2	;volatile
   747                           
   748                           ;system.c: 69: BAUDCTLbits.BRG16 = 0;
   749  00BA  119B               	bcf	27,3	;volatile
   750                           
   751                           ;system.c: 71: BAUDCTLbits.ABDEN = 0;
   752  00BB  101B               	bcf	27,0	;volatile
   753                           
   754                           ;system.c: 76: TXSTAbits.TXEN = 1;
   755  00BC  1698               	bsf	24,5	;volatile
   756                           
   757                           ;system.c: 77: RCSTAbits.CREN = 1;
   758  00BD  1283               	bcf	3,5	;RP0=0, select bank0
   759  00BE  1303               	bcf	3,6	;RP1=0, select bank0
   760  00BF  1618               	bsf	24,4	;volatile
   761                           
   762                           ;system.c: 78: RCSTAbits.SPEN = 1;
   763  00C0  1798               	bsf	24,7	;volatile
   764  00C1  0008               	return
   765  00C2                     __end_of_initUart:	
   766                           
   767                           	psect	text3
   768  0016                     __ptext3:	
   769 ;; *************** function ___awmod *****************
   770 ;; Defined at:
   771 ;;		line 6 in file "C:\CAE_tools\Microchip\xc8\v1.31\sources\common\awmod.c"
   772 ;; Parameters:    Size  Location     Type
   773 ;;  divisor         2    4[COMMON] int 
   774 ;;  dividend        2    6[COMMON] int 
   775 ;; Auto vars:     Size  Location     Type
   776 ;;  sign            1    1[BANK0 ] unsigned char 
   777 ;;  counter         1    0[BANK0 ] unsigned char 
   778 ;; Return value:  Size  Location     Type
   779 ;;                  2    4[COMMON] int 
   780 ;; Registers used:
   781 ;;		wreg, status,2, status,0
   782 ;; Tracked objects:
   783 ;;		On entry : 0/0
   784 ;;		On exit  : 0/0
   785 ;;		Unchanged: 0/0
   786 ;; Data sizes:     COMMON   BANK0   BANK1   BANK2
   787 ;;      Params:         4       0       0       0
   788 ;;      Locals:         0       2       0       0
   789 ;;      Temps:          1       0       0       0
   790 ;;      Totals:         5       2       0       0
   791 ;;Total ram usage:        7 bytes
   792 ;; Hardware stack levels used:    1
   793 ;; Hardware stack levels required when called:    1
   794 ;; This function calls:
   795 ;;		Nothing
   796 ;; This function is called by:
   797 ;;		_main
   798 ;; This function uses a non-reentrant model
   799 ;;
   800                           
   801                           
   802                           ;psect for function ___awmod
   803  0016                     ___awmod:	
   804                           
   805                           ;incstack = 0
   806                           ; Regs used in ___awmod: [wreg+status,2+status,0]
   807  0016  1283               	bcf	3,5	;RP0=0, select bank0
   808  0017  1303               	bcf	3,6	;RP1=0, select bank0
   809  0018  01A1               	clrf	___awmod@sign
   810  0019  1FF7               	btfss	___awmod@dividend+1,7
   811  001A  2822               	goto	l737
   812  001B  09F6               	comf	___awmod@dividend,f
   813  001C  09F7               	comf	___awmod@dividend+1,f
   814  001D  0AF6               	incf	___awmod@dividend,f
   815  001E  1903               	skipnz
   816  001F  0AF7               	incf	___awmod@dividend+1,f
   817  0020  01A1               	clrf	___awmod@sign
   818  0021  0AA1               	incf	___awmod@sign,f
   819  0022                     l737:	
   820  0022  1FF5               	btfss	___awmod@divisor+1,7
   821  0023  2829               	goto	l741
   822  0024  09F4               	comf	___awmod@divisor,f
   823  0025  09F5               	comf	___awmod@divisor+1,f
   824  0026  0AF4               	incf	___awmod@divisor,f
   825  0027  1903               	skipnz
   826  0028  0AF5               	incf	___awmod@divisor+1,f
   827  0029                     l741:	
   828  0029  0875               	movf	___awmod@divisor+1,w
   829  002A  0474               	iorwf	___awmod@divisor,w
   830  002B  1903               	skipnz
   831  002C  2856               	goto	l759
   832  002D  01A0               	clrf	___awmod@counter
   833  002E  0AA0               	incf	___awmod@counter,f
   834  002F                     l749:	
   835  002F  1BF5               	btfsc	___awmod@divisor+1,7
   836  0030  283D               	goto	l751
   837  0031  3001               	movlw	1
   838  0032                     u235:	
   839  0032  1003               	clrc
   840  0033  0DF4               	rlf	___awmod@divisor,f
   841  0034  0DF5               	rlf	___awmod@divisor+1,f
   842  0035  3EFF               	addlw	-1
   843  0036  1D03               	skipz
   844  0037  2832               	goto	u235
   845  0038  3001               	movlw	1
   846  0039  00F8               	movwf	??___awmod
   847  003A  0878               	movf	??___awmod,w
   848  003B  07A0               	addwf	___awmod@counter,f
   849  003C  282F               	goto	l749
   850  003D                     l751:	
   851  003D  0875               	movf	___awmod@divisor+1,w
   852  003E  0277               	subwf	___awmod@dividend+1,w
   853  003F  1D03               	skipz
   854  0040  2843               	goto	u255
   855  0041  0874               	movf	___awmod@divisor,w
   856  0042  0276               	subwf	___awmod@dividend,w
   857  0043                     u255:	
   858  0043  1C03               	skipc
   859  0044  284B               	goto	l755
   860  0045  0874               	movf	___awmod@divisor,w
   861  0046  02F6               	subwf	___awmod@dividend,f
   862  0047  0875               	movf	___awmod@divisor+1,w
   863  0048  1C03               	skipc
   864  0049  03F7               	decf	___awmod@dividend+1,f
   865  004A  02F7               	subwf	___awmod@dividend+1,f
   866  004B                     l755:	
   867  004B  3001               	movlw	1
   868  004C                     u265:	
   869  004C  1003               	clrc
   870  004D  0CF5               	rrf	___awmod@divisor+1,f
   871  004E  0CF4               	rrf	___awmod@divisor,f
   872  004F  3EFF               	addlw	-1
   873  0050  1D03               	skipz
   874  0051  284C               	goto	u265
   875  0052  3001               	movlw	1
   876  0053  02A0               	subwf	___awmod@counter,f
   877  0054  1D03               	btfss	3,2
   878  0055  283D               	goto	l751
   879  0056                     l759:	
   880  0056  0821               	movf	___awmod@sign,w
   881  0057  1903               	btfsc	3,2
   882  0058  285E               	goto	l763
   883  0059  09F6               	comf	___awmod@dividend,f
   884  005A  09F7               	comf	___awmod@dividend+1,f
   885  005B  0AF6               	incf	___awmod@dividend,f
   886  005C  1903               	skipnz
   887  005D  0AF7               	incf	___awmod@dividend+1,f
   888  005E                     l763:	
   889  005E  0877               	movf	___awmod@dividend+1,w
   890  005F  01F5               	clrf	?___awmod+1
   891  0060  07F5               	addwf	?___awmod+1,f
   892  0061  0876               	movf	___awmod@dividend,w
   893  0062  01F4               	clrf	?___awmod
   894  0063  07F4               	addwf	?___awmod,f
   895  0064  0008               	return
   896  0065                     __end_of___awmod:	
   897                           
   898                           	psect	text4
   899  00C2                     __ptext4:	
   900 ;; *************** function _ConfigureOscillator *****************
   901 ;; Defined at:
   902 ;;		line 18 in file "system.c"
   903 ;; Parameters:    Size  Location     Type
   904 ;;		None
   905 ;; Auto vars:     Size  Location     Type
   906 ;;		None
   907 ;; Return value:  Size  Location     Type
   908 ;;		None               void
   909 ;; Registers used:
   910 ;;		wreg, status,2, status,0
   911 ;; Tracked objects:
   912 ;;		On entry : 0/0
   913 ;;		On exit  : 0/0
   914 ;;		Unchanged: 0/0
   915 ;; Data sizes:     COMMON   BANK0   BANK1   BANK2
   916 ;;      Params:         0       0       0       0
   917 ;;      Locals:         0       0       0       0
   918 ;;      Temps:          0       0       0       0
   919 ;;      Totals:         0       0       0       0
   920 ;;Total ram usage:        0 bytes
   921 ;; Hardware stack levels used:    1
   922 ;; Hardware stack levels required when called:    1
   923 ;; This function calls:
   924 ;;		Nothing
   925 ;; This function is called by:
   926 ;;		_main
   927 ;; This function uses a non-reentrant model
   928 ;;
   929                           
   930                           
   931                           ;psect for function _ConfigureOscillator
   932  00C2                     _ConfigureOscillator:	
   933                           
   934                           ;system.c: 22: OSCCONbits.SCS=0x1;
   935                           
   936                           ;incstack = 0
   937                           ; Regs used in _ConfigureOscillator: [wreg+status,2+status,0]
   938  00C2  1683               	bsf	3,5	;RP0=1, select bank1
   939  00C3  1303               	bcf	3,6	;RP1=0, select bank1
   940  00C4  140F               	bsf	15,0	;volatile
   941                           
   942                           ;system.c: 23: OSCCONbits.IRCF=0x6;
   943  00C5  080F               	movf	15,w	;volatile
   944  00C6  398F               	andlw	-113
   945  00C7  3860               	iorlw	96
   946  00C8  008F               	movwf	15	;volatile
   947                           
   948                           ;system.c: 26: OPTION_REGbits.T0CS = 0;
   949  00C9  1281               	bcf	1,5	;volatile
   950                           
   951                           ;system.c: 28: OPTION_REGbits.PSA = 0;
   952  00CA  1181               	bcf	1,3	;volatile
   953                           
   954                           ;system.c: 30: OPTION_REGbits.PS = 0x7;
   955  00CB  3007               	movlw	7
   956  00CC  0481               	iorwf	1,f	;volatile
   957  00CD                     l44:	
   958                           ;system.c: 36: {
   959                           ;system.c: 37: ;
   960                           
   961                           ;system.c: 35: while(OSCCONbits.HTS==0)
   962                           
   963  00CD  190F               	btfsc	15,2	;volatile
   964  00CE  0008               	return
   965  00CF  28CD               	goto	l44
   966  00D0                     __end_of_ConfigureOscillator:	
   967                           
   968                           	psect	text5
   969  00D0                     __ptext5:	
   970 ;; *************** function _isr *****************
   971 ;; Defined at:
   972 ;;		line 23 in file "interrupts.c"
   973 ;; Parameters:    Size  Location     Type
   974 ;;		None
   975 ;; Auto vars:     Size  Location     Type
   976 ;;		None
   977 ;; Return value:  Size  Location     Type
   978 ;;		None               void
   979 ;; Registers used:
   980 ;;		None
   981 ;; Tracked objects:
   982 ;;		On entry : 0/0
   983 ;;		On exit  : 0/0
   984 ;;		Unchanged: 0/0
   985 ;; Data sizes:     COMMON   BANK0   BANK1   BANK2
   986 ;;      Params:         0       0       0       0
   987 ;;      Locals:         0       0       0       0
   988 ;;      Temps:          4       0       0       0
   989 ;;      Totals:         4       0       0       0
   990 ;;Total ram usage:        4 bytes
   991 ;; Hardware stack levels used:    1
   992 ;; This function calls:
   993 ;;		Nothing
   994 ;; This function is called by:
   995 ;;		Interrupt level 1
   996 ;; This function uses a non-reentrant model
   997 ;;
   998                           
   999                           
  1000                           ;psect for function _isr
  1001  00D0                     _isr:	
  1002  00D0  0873               	movf	??_isr+3,w
  1003  00D1  00FF               	movwf	127
  1004  00D2  0872               	movf	??_isr+2,w
  1005  00D3  008A               	movwf	10
  1006  00D4  0871               	movf	??_isr+1,w
  1007  00D5  0084               	movwf	4
  1008  00D6  0E70               	swapf	??_isr^(0+-128),w
  1009  00D7  0083               	movwf	3
  1010  00D8  0EFE               	swapf	126,f
  1011  00D9  0E7E               	swapf	126,w
  1012  00DA  0009               	retfie
  1013  00DB                     __end_of_isr:	
  1014  007E                     btemp	set	126	;btemp
  1015  007E                     wtemp	set	126
  1016  007E                     wtemp0	set	126
  1017  0080                     wtemp1	set	128
  1018  0082                     wtemp2	set	130
  1019  0084                     wtemp3	set	132
  1020  0086                     wtemp4	set	134
  1021  0088                     wtemp5	set	136
  1022  007F                     wtemp6	set	127
  1023  007E                     ttemp	set	126
  1024  007E                     ttemp0	set	126
  1025  0081                     ttemp1	set	129
  1026  0084                     ttemp2	set	132
  1027  0087                     ttemp3	set	135
  1028  007F                     ttemp4	set	127
  1029  007E                     ltemp	set	126
  1030  007E                     ltemp0	set	126
  1031  0082                     ltemp1	set	130
  1032  0086                     ltemp2	set	134
  1033  0080                     ltemp3	set	128
  1034                           
  1035                           	psect	intentry
  1036  0004                     __pintentry:	
  1037                           ;incstack = 0
  1038                           ; Regs used in _isr: []
  1039                           
  1040  0004                     interrupt_function:	
  1041  007E                     saved_w	set	btemp
  1042  0004  00FE               	movwf	btemp
  1043  0005  0E03               	swapf	3,w
  1044  0006  00F0               	movwf	??_isr
  1045  0007  0804               	movf	4,w
  1046  0008  00F1               	movwf	??_isr+1
  1047  0009  080A               	movf	10,w
  1048  000A  00F2               	movwf	??_isr+2
  1049  000B  1283               	bcf	3,5	;RP0=0, select bank0
  1050  000C  1303               	bcf	3,6	;RP1=0, select bank0
  1051  000D  087F               	movf	btemp+1,w
  1052  000E  00F3               	movwf	??_isr+3
  1053  000F  118A  28D0         	ljmp	_isr


Data Sizes:
    Strings     0
    Constant    0
    Data        0
    BSS         0
    Persistent  0
    Stack       0

Auto Spaces:
    Space          Size  Autos    Used
    COMMON           14      9       9
    BANK0            80      8       8
    BANK1            80      0       0
    BANK2            80      0       0

Pointer List with Targets:

    None.

Critical Paths under _main in COMMON

    _main->___awmod

Critical Paths under _isr in COMMON

    None.

Critical Paths under _main in BANK0

    _main->___awmod

Critical Paths under _isr in BANK0

    None.

Critical Paths under _main in BANK1

    None.

Critical Paths under _isr in BANK1

    None.

Critical Paths under _main in BANK2

    None.

Critical Paths under _isr in BANK2

    None.

Call Graph Tables:

 ---------------------------------------------------------------------------------
 (Depth) Function   	        Calls       Base Space   Used Autos Params    Refs
 ---------------------------------------------------------------------------------
 (0) _main                                                 6     6      0     493
                                              2 BANK0      6     6      0
                _ConfigureOscillator
                            ___awmod
                           _initUart
                          _putch_JEC
 ---------------------------------------------------------------------------------
 (1) _putch_JEC                                            1     1      0      22
                                              4 COMMON     1     1      0
 ---------------------------------------------------------------------------------
 (1) _initUart                                             0     0      0       0
 ---------------------------------------------------------------------------------
 (1) ___awmod                                              7     3      4     402
                                              4 COMMON     5     1      4
                                              0 BANK0      2     2      0
 ---------------------------------------------------------------------------------
 (1) _ConfigureOscillator                                  0     0      0       0
 ---------------------------------------------------------------------------------
 Estimated maximum stack depth 1
 ---------------------------------------------------------------------------------
 (Depth) Function   	        Calls       Base Space   Used Autos Params    Refs
 ---------------------------------------------------------------------------------
 (2) _isr                                                  4     4      0       0
                                              0 COMMON     4     4      0
 ---------------------------------------------------------------------------------
 Estimated maximum stack depth 2
 ---------------------------------------------------------------------------------

 Call Graph Graphs:

 _main (ROOT)
   _ConfigureOscillator
   ___awmod
   _initUart
   _putch_JEC

 _isr (ROOT)

 Address spaces:
Name               Size   Autos  Total    Cost      Usage
BITCOMMON            E      0       0       0        0.0%
EEDATA             100      0       0       0        0.0%
NULL                 0      0       0       0        0.0%
CODE                 0      0       0       0        0.0%
COMMON               E      9       9       1       64.3%
BITSFR0              0      0       0       1        0.0%
SFR0                 0      0       0       1        0.0%
BITSFR1              0      0       0       2        0.0%
SFR1                 0      0       0       2        0.0%
STACK                0      0       0       2        0.0%
BANK0               50      8       8       3       10.0%
BITBANK1            50      0       0       4        0.0%
BITSFR3              0      0       0       4        0.0%
SFR3                 0      0       0       4        0.0%
BANK1               50      0       0       5        0.0%
BITSFR2              0      0       0       5        0.0%
SFR2                 0      0       0       5        0.0%
BITBANK2            50      0       0       6        0.0%
BANK2               50      0       0       7        0.0%
ABS                  0      0       0       8        0.0%
BITBANK0            50      0       0       9        0.0%
DATA                 0      0       0      10        0.0%


Microchip Technology PIC Macro Assembler V1.31 build 56723 
Symbol Table                                                                                   Tue Jun 10 22:12:17 2014

                 __CFG_CP$OFF 0000                            l44 00CD                            l87 00DC  
                         l741 0029                           l751 003D                           l737 0022  
                         l763 005E                           l755 004B                           l749 002F  
                         l759 0056                           l777 0079                           u235 0032  
                         u255 0043                           u265 004C                  __CFG_CPD$OFF 0000  
                         u297 0081                           _isr 00D0                           fsr0 0004  
                ___awmod@sign 0021                  __CFG_IESO$ON 0000                          ?_isr 0070  
                        _TMR0 0001                          _TXIF 0064                 __CFG_FCMEN$ON 0000  
                        _main 0065                          btemp 007E                 __CFG_BOREN$ON 0000  
                        ltemp 007E                          start 0011                          ttemp 007E  
                        wtemp 007E                 __CFG_MCLRE$ON 0000                         ??_isr 0070  
                       ?_main 0070                 __CFG_WDTE$OFF 0000               __end_of___awmod 0065  
                       _ANSEL 011E                         _SPBRG 0099                         _PORTC 0007  
                       _TRISC 0087                         _TXREG 0019           _ConfigureOscillator 00C2  
                       main@j 0026                         pclath 000A                         ltemp0 007E  
                       ltemp1 0082                         ltemp2 0086                         ltemp3 0080  
                       ttemp0 007E                         ttemp1 0081                         ttemp2 0084  
                       ttemp3 0087                         ttemp4 007F                         status 0003  
                       wtemp0 007E                         wtemp1 0080                         wtemp2 0082  
                       wtemp3 0084                         wtemp4 0086                         wtemp5 0088  
                       wtemp6 007F          ?_ConfigureOscillator 0070               __initialization 0013  
                __end_of_main 00A5                        ??_main 0022                        _ANSELH 011F  
       ??_ConfigureOscillator 0074                __CFG_PWRTE$OFF 0000                     ??___awmod 0078  
            __end_of_initUart 00C2               ___awmod@divisor 0074               ___awmod@counter 0020  
                      saved_w 007E       __end_of__initialization 0013                __pcstackCOMMON 0070  
               putch_JEC@data 0074                _OPTION_REGbits 0081                    __pmaintext 0065  
                  __pintentry 0004            __size_of_putch_JEC 0008                     ?_initUart 0070  
                     ___awmod 0016                       __ptext0 0000                       __ptext1 00DB  
                     __ptext2 00A5                       __ptext3 0016                       __ptext4 00C2  
                     __ptext5 00D0                  __size_of_isr 000B              ___awmod@dividend 0076  
        end_of_initialization 0013                    ??_initUart 0074                     _RCSTAbits 0018  
           __end_of_putch_JEC 00E3                     _TRISBbits 0086   __end_of_ConfigureOscillator 00D0  
                   _TXSTAbits 0098                    main@sender 0025                   _BAUDCTLbits 009B  
         start_initialization 0013                   __end_of_isr 00DB                     ___latbits 0001  
               __pcstackBANK0 0020             __size_of_initUart 001D                      ?___awmod 0074  
           interrupt_function 0004                     _putch_JEC 00DB              __size_of___awmod 004F  
                  ?_putch_JEC 0070                      _initUart 00A5                 __size_of_main 0040  
__size_of_ConfigureOscillator 000E                      intlevel1 0000                    _OSCCONbits 008F  
                 ??_putch_JEC 0074            __CFG_FOSC$INTRCCLK 0000  
